#include <math.h>
#include <stdio.h>
#include <stdlib.h>
#include <string.h>

int main()
{
	int n,k,i,j,s=0;
	int *a;
	scanf("%d %d",&n,&k);
	a=(int*)malloc(n*sizeof(int));
	for(i=0;i<=n-1;i++)
		scanf("%d",&a[i]);
	for(i=0;i<=n-2;i++)
		for(j=1+i;j<=n-1;j++)
			if(a[i]+a[j]==k)
			{
				s=1;
				break;
			}
	if(s==1)
		printf("yes\n");
	else
		printf("no\n");
	return 0;
}
