; ModuleID = 'source-C-CXX/2/2753.c'
source_filename = "source-C-CXX/2/2753.c"
target datalayout = "e-m:e-p270:32:32-p271:32:32-p272:64:64-i64:64-f80:128-n8:16:32:64-S128"
target triple = "x86_64-pc-linux-gnu"

@.str = private unnamed_addr constant [6 x i8] c"%d %d\00", align 1
@.str.1 = private unnamed_addr constant [3 x i8] c"%d\00", align 1
@str = private unnamed_addr constant [3 x i8] c"no\00", align 1
@str.4 = private unnamed_addr constant [4 x i8] c"yes\00", align 1

; Function Attrs: nofree nounwind sspstrong uwtable
define dso_local i32 @main() local_unnamed_addr #0 {
  %1 = alloca i32, align 4
  %2 = alloca i32, align 4
  %3 = bitcast i32* %1 to i8*
  call void @llvm.lifetime.start.p0i8(i64 4, i8* nonnull %3) #5
  %4 = bitcast i32* %2 to i8*
  call void @llvm.lifetime.start.p0i8(i64 4, i8* nonnull %4) #5
  %5 = call i32 (i8*, ...) @__isoc99_scanf(i8* getelementptr inbounds ([6 x i8], [6 x i8]* @.str, i64 0, i64 0), i32* nonnull %1, i32* nonnull %2)
  %6 = load i32, i32* %1, align 4, !tbaa !5
  %7 = sext i32 %6 to i64
  %8 = shl nsw i64 %7, 2
  %9 = call noalias align 16 i8* @malloc(i64 %8) #5
  %10 = bitcast i8* %9 to i32*
  %11 = icmp sgt i32 %6, 0
  br i1 %11, label %18, label %52

12:                                               ; preds = %18
  %13 = load i32, i32* %2, align 4
  %14 = icmp slt i32 %23, 2
  br i1 %14, label %52, label %15

15:                                               ; preds = %12
  %16 = add nsw i32 %23, -1
  %17 = zext i32 %16 to i64
  br label %26

18:                                               ; preds = %0, %18
  %19 = phi i64 [ %22, %18 ], [ 0, %0 ]
  %20 = getelementptr inbounds i32, i32* %10, i64 %19
  %21 = call i32 (i8*, ...) @__isoc99_scanf(i8* getelementptr inbounds ([3 x i8], [3 x i8]* @.str.1, i64 0, i64 0), i32* %20)
  %22 = add nuw nsw i64 %19, 1
  %23 = load i32, i32* %1, align 4, !tbaa !5
  %24 = sext i32 %23 to i64
  %25 = icmp slt i64 %22, %24
  br i1 %25, label %18, label %12, !llvm.loop !9

26:                                               ; preds = %15, %46
  %27 = phi i64 [ 0, %15 ], [ %30, %46 ]
  %28 = phi i64 [ 1, %15 ], [ %48, %46 ]
  %29 = phi i32 [ 0, %15 ], [ %47, %46 ]
  %30 = add nuw nsw i64 %27, 1
  %31 = trunc i64 %30 to i32
  %32 = icmp sgt i32 %23, %31
  br i1 %32, label %33, label %46

33:                                               ; preds = %26
  %34 = getelementptr inbounds i32, i32* %10, i64 %27
  %35 = load i32, i32* %34, align 4, !tbaa !5
  br label %39

36:                                               ; preds = %39
  %37 = trunc i64 %45 to i32
  %38 = icmp eq i32 %23, %37
  br i1 %38, label %46, label %39, !llvm.loop !11

39:                                               ; preds = %33, %36
  %40 = phi i64 [ %28, %33 ], [ %45, %36 ]
  %41 = getelementptr inbounds i32, i32* %10, i64 %40
  %42 = load i32, i32* %41, align 4, !tbaa !5
  %43 = add nsw i32 %42, %35
  %44 = icmp eq i32 %43, %13
  %45 = add nuw nsw i64 %40, 1
  br i1 %44, label %46, label %36

46:                                               ; preds = %36, %39, %26
  %47 = phi i32 [ %29, %26 ], [ 1, %39 ], [ %29, %36 ]
  %48 = add nuw nsw i64 %28, 1
  %49 = icmp eq i64 %30, %17
  br i1 %49, label %50, label %26, !llvm.loop !12

50:                                               ; preds = %46
  %51 = icmp eq i32 %47, 1
  br i1 %51, label %53, label %52

52:                                               ; preds = %0, %12, %50
  br label %53

53:                                               ; preds = %50, %52
  %54 = phi i8* [ getelementptr inbounds ([3 x i8], [3 x i8]* @str, i64 0, i64 0), %52 ], [ getelementptr inbounds ([4 x i8], [4 x i8]* @str.4, i64 0, i64 0), %50 ]
  %55 = call i32 @puts(i8* nonnull dereferenceable(1) %54)
  call void @llvm.lifetime.end.p0i8(i64 4, i8* nonnull %4) #5
  call void @llvm.lifetime.end.p0i8(i64 4, i8* nonnull %3) #5
  ret i32 0
}

; Function Attrs: argmemonly mustprogress nofree nosync nounwind willreturn
declare void @llvm.lifetime.start.p0i8(i64 immarg, i8* nocapture) #1

; Function Attrs: nofree nounwind
declare noundef i32 @__isoc99_scanf(i8* nocapture noundef readonly, ...) local_unnamed_addr #2

; Function Attrs: inaccessiblememonly mustprogress nofree nounwind willreturn
declare noalias noundef align 16 i8* @malloc(i64 noundef) local_unnamed_addr #3

; Function Attrs: argmemonly mustprogress nofree nosync nounwind willreturn
declare void @llvm.lifetime.end.p0i8(i64 immarg, i8* nocapture) #1

; Function Attrs: nofree nounwind
declare noundef i32 @puts(i8* nocapture noundef readonly) local_unnamed_addr #4


!llvm.module.flags = !{!0, !1, !2, !3}
!llvm.ident = !{!4}

!0 = !{i32 1, !"wchar_size", i32 4}
!1 = !{i32 7, !"PIC Level", i32 2}
!2 = !{i32 7, !"PIE Level", i32 2}
!3 = !{i32 7, !"uwtable", i32 1}
!4 = !{!"clang version 13.0.0"}
!5 = !{!6, !6, i64 0}
!6 = !{!"int", !7, i64 0}
!7 = !{!"omnipotent char", !8, i64 0}
!8 = !{!"Simple C/C++ TBAA"}
!9 = distinct !{!9, !10}
!10 = !{!"llvm.loop.mustprogress"}
!11 = distinct !{!11, !10}
!12 = distinct !{!12, !10}
